target datalayout = "e-m:e-p270:32:32-p271:32:32-p272:64:64-i64:64-i128:128-f80:128-n8:16:32:64-S128"
target triple = "x86_64-pc-linux-gnu"

%struct._capture_file = type { ptr, i32, ptr, ptr, i8, i8, i8, i64, i16, i32, i32, i32, ptr, i32, i64, i32, i32, i32, i32, i8, i32, %struct.nstime_t, i32, ptr, ptr, ptr, i8, i8, i32, ptr, i8, i8, i8, i8, i8, i32, i32, i8, ptr, i32, i32, i8, %struct.packet_provider_data, i32, i32, %struct.epan_column_info, ptr, ptr, ptr, %struct.wtap_rec, %struct.Buffer, ptr, i64, i32 }
%struct.nstime_t = type { i64, i32 }
%struct.packet_provider_data = type { ptr, ptr, ptr, ptr, ptr, ptr }
%struct.epan_column_info = type { ptr, i32, ptr, ptr, ptr, %struct.col_expr_t, i8, ptr }
%struct.col_expr_t = type { ptr, ptr }
%struct.wtap_rec = type { i32, i32, i32, %struct.nstime_t, i32, %struct.nstime_t, i8, %union.anon, ptr, i8, %struct.Buffer, %struct.Buffer }
%union.anon = type { %struct.wtap_packet_header }
%struct.wtap_packet_header = type { i32, i32, i32, i32, %union.wtap_pseudo_header }
%union.wtap_pseudo_header = type { %struct.erf_mc_phdr }
%struct.erf_mc_phdr = type { %struct.erf_phdr, [16 x %struct.erf_ehdr], %union.anon.1 }
%struct.erf_phdr = type { i64, i8, i8, i16, i16, i16 }
%struct.erf_ehdr = type { i64 }
%union.anon.1 = type { i32 }
%struct.Buffer = type { ptr, i64, i64, i64 }
%struct.packet_provider_funcs = type { ptr, ptr, ptr, ptr }

@sharkd_epan_new.funcs = internal constant %struct.packet_provider_funcs { ptr @cap_file_provider_get_frame_ts, ptr @cap_file_provider_get_interface_name, ptr @cap_file_provider_get_interface_description, ptr @cap_file_provider_get_modified_block }, align 8

; Function Attrs: null_pointer_is_valid sspstrong uwtable
define internal ptr @sharkd_epan_new(ptr noundef %0) #0 {
  %2 = alloca ptr, align 8
  store ptr %0, ptr %2, align 8
  %3 = load ptr, ptr %2, align 8
  %4 = getelementptr inbounds nuw %struct._capture_file, ptr %3, i32 0, i32 42
  %5 = call ptr @epan_new(ptr noundef %4, ptr noundef @sharkd_epan_new.funcs)
  ret ptr %5
}

; Function Attrs: null_pointer_is_valid sspstrong uwtable
define hidden i32 @cf_open(ptr noundef %0, ptr noundef %1, i32 noundef %2, i1 noundef zeroext %3, ptr noundef %4) #0 {
  %6 = alloca i32, align 4
  %7 = alloca ptr, align 8
  %8 = alloca ptr, align 8
  %9 = alloca i32, align 4
  %10 = alloca i8, align 1
  %11 = alloca ptr, align 8
  %12 = alloca ptr, align 8
  %13 = alloca ptr, align 8
  %14 = alloca i32, align 4
  store ptr %0, ptr %7, align 8
  store ptr %1, ptr %8, align 8
  store i32 %2, ptr %9, align 4
  %15 = zext i1 %3 to i8
  store i8 %15, ptr %10, align 1
  store ptr %4, ptr %11, align 8
  call void @llvm.lifetime.start.p0(i64 8, ptr %12) #5
  call void @llvm.lifetime.start.p0(i64 8, ptr %13) #5
  %16 = load ptr, ptr %8, align 8
  %17 = load i32, ptr %9, align 4
  %18 = load ptr, ptr %11, align 8
  %19 = call ptr @wtap_open_offline(ptr noundef %16, i32 noundef %17, ptr noundef %18, ptr noundef %13, i1 noundef zeroext true)
  store ptr %19, ptr %12, align 8
  %20 = load ptr, ptr %12, align 8
  %21 = icmp eq ptr %20, null
  br i1 %21, label %22, label %23

22:                                               ; preds = %5
  br label %97

23:                                               ; preds = %5
  %24 = load ptr, ptr %12, align 8
  %25 = load ptr, ptr %7, align 8
  %26 = getelementptr inbounds nuw %struct._capture_file, ptr %25, i32 0, i32 42
  %27 = getelementptr inbounds nuw %struct.packet_provider_data, ptr %26, i32 0, i32 0
  store ptr %24, ptr %27, align 8
  %28 = load ptr, ptr %7, align 8
  %29 = getelementptr inbounds nuw %struct._capture_file, ptr %28, i32 0, i32 7
  store i64 0, ptr %29, align 8
  %30 = load ptr, ptr %8, align 8
  %31 = call noalias ptr @g_strdup(ptr noundef %30)
  %32 = load ptr, ptr %7, align 8
  %33 = getelementptr inbounds nuw %struct._capture_file, ptr %32, i32 0, i32 2
  store ptr %31, ptr %33, align 8
  %34 = load i8, ptr %10, align 1, !range !7, !noundef !8
  %35 = trunc i8 %34 to i1
  %36 = load ptr, ptr %7, align 8
  %37 = getelementptr inbounds nuw %struct._capture_file, ptr %36, i32 0, i32 4
  %38 = zext i1 %35 to i8
  store i8 %38, ptr %37, align 8
  %39 = load ptr, ptr %7, align 8
  %40 = getelementptr inbounds nuw %struct._capture_file, ptr %39, i32 0, i32 5
  store i8 0, ptr %40, align 1
  %41 = load ptr, ptr %7, align 8
  %42 = getelementptr inbounds nuw %struct._capture_file, ptr %41, i32 0, i32 42
  %43 = getelementptr inbounds nuw %struct.packet_provider_data, ptr %42, i32 0, i32 0
  %44 = load ptr, ptr %43, align 8
  %45 = call i32 @wtap_file_type_subtype(ptr noundef %44)
  %46 = trunc i32 %45 to i16
  %47 = load ptr, ptr %7, align 8
  %48 = getelementptr inbounds nuw %struct._capture_file, ptr %47, i32 0, i32 8
  store i16 %46, ptr %48, align 8
  %49 = load i32, ptr %9, align 4
  %50 = load ptr, ptr %7, align 8
  %51 = getelementptr inbounds nuw %struct._capture_file, ptr %50, i32 0, i32 9
  store i32 %49, ptr %51, align 4
  %52 = load ptr, ptr %7, align 8
  %53 = getelementptr inbounds nuw %struct._capture_file, ptr %52, i32 0, i32 13
  store i32 0, ptr %53, align 8
  %54 = load ptr, ptr %7, align 8
  %55 = getelementptr inbounds nuw %struct._capture_file, ptr %54, i32 0, i32 19
  store i8 0, ptr %55, align 8
  %56 = load ptr, ptr %7, align 8
  %57 = getelementptr inbounds nuw %struct._capture_file, ptr %56, i32 0, i32 20
  store i32 0, ptr %57, align 4
  %58 = load ptr, ptr %7, align 8
  %59 = getelementptr inbounds nuw %struct._capture_file, ptr %58, i32 0, i32 42
  %60 = getelementptr inbounds nuw %struct.packet_provider_data, ptr %59, i32 0, i32 0
  %61 = load ptr, ptr %60, align 8
  %62 = call i32 @wtap_snapshot_length(ptr noundef %61)
  %63 = load ptr, ptr %7, align 8
  %64 = getelementptr inbounds nuw %struct._capture_file, ptr %63, i32 0, i32 22
  store i32 %62, ptr %64, align 8
  %65 = load ptr, ptr %7, align 8
  %66 = getelementptr inbounds nuw %struct._capture_file, ptr %65, i32 0, i32 21
  call void @nstime_set_zero(ptr noundef %66)
  %67 = load ptr, ptr %7, align 8
  %68 = getelementptr inbounds nuw %struct._capture_file, ptr %67, i32 0, i32 42
  %69 = getelementptr inbounds nuw %struct.packet_provider_data, ptr %68, i32 0, i32 1
  store ptr null, ptr %69, align 8
  %70 = load ptr, ptr %7, align 8
  %71 = getelementptr inbounds nuw %struct._capture_file, ptr %70, i32 0, i32 42
  %72 = getelementptr inbounds nuw %struct.packet_provider_data, ptr %71, i32 0, i32 2
  store ptr null, ptr %72, align 8
  %73 = load ptr, ptr %7, align 8
  %74 = getelementptr inbounds nuw %struct._capture_file, ptr %73, i32 0, i32 42
  %75 = getelementptr inbounds nuw %struct.packet_provider_data, ptr %74, i32 0, i32 3
  store ptr null, ptr %75, align 8
  %76 = load ptr, ptr %7, align 8
  %77 = getelementptr inbounds nuw %struct._capture_file, ptr %76, i32 0, i32 0
  %78 = load ptr, ptr %77, align 8
  call void @epan_free(ptr noundef %78)
  %79 = load ptr, ptr %7, align 8
  %80 = call ptr @sharkd_epan_new(ptr noundef %79)
  %81 = load ptr, ptr %7, align 8
  %82 = getelementptr inbounds nuw %struct._capture_file, ptr %81, i32 0, i32 0
  store ptr %80, ptr %82, align 8
  %83 = load ptr, ptr %7, align 8
  %84 = getelementptr inbounds nuw %struct._capture_file, ptr %83, i32 0, i32 1
  store i32 2, ptr %84, align 8
  %85 = load ptr, ptr %7, align 8
  %86 = getelementptr inbounds nuw %struct._capture_file, ptr %85, i32 0, i32 42
  %87 = getelementptr inbounds nuw %struct.packet_provider_data, ptr %86, i32 0, i32 0
  %88 = load ptr, ptr %87, align 8
  call void @wtap_set_cb_new_ipv4(ptr noundef %88, ptr noundef @add_ipv4_name)
  %89 = load ptr, ptr %7, align 8
  %90 = getelementptr inbounds nuw %struct._capture_file, ptr %89, i32 0, i32 42
  %91 = getelementptr inbounds nuw %struct.packet_provider_data, ptr %90, i32 0, i32 0
  %92 = load ptr, ptr %91, align 8
  call void @wtap_set_cb_new_ipv6(ptr noundef %92, ptr noundef @add_ipv6_name)
  %93 = load ptr, ptr %7, align 8
  %94 = getelementptr inbounds nuw %struct._capture_file, ptr %93, i32 0, i32 42
  %95 = getelementptr inbounds nuw %struct.packet_provider_data, ptr %94, i32 0, i32 0
  %96 = load ptr, ptr %95, align 8
  call void @wtap_set_cb_new_secrets(ptr noundef %96, ptr noundef @secrets_wtap_callback)
  store i32 0, ptr %6, align 4
  store i32 1, ptr %14, align 4
  br label %102

97:                                               ; preds = %22
  %98 = load ptr, ptr %8, align 8
  %99 = load ptr, ptr %11, align 8
  %100 = load i32, ptr %99, align 4
  %101 = load ptr, ptr %13, align 8
  call void @cfile_open_failure_message(ptr noundef %98, i32 noundef %100, ptr noundef %101)
  store i32 1, ptr %6, align 4
  store i32 1, ptr %14, align 4
  br label %102

102:                                              ; preds = %97, %23
  call void @llvm.lifetime.end.p0(i64 8, ptr %13) #5
  call void @llvm.lifetime.end.p0(i64 8, ptr %12) #5
  %103 = load i32, ptr %6, align 4
  ret i32 %103
}