; Function Attrs: null_pointer_is_valid sspstrong uwtable
define hidden range(i32 0, 2) i32 @cf_open(ptr noundef %0, ptr noundef %1, i32 noundef %2, i1 noundef zeroext %3, ptr noundef %4) local_unnamed_addr #0 {
  %6 = alloca ptr, align 8
  call void @llvm.lifetime.start.p0(i64 8, ptr nonnull %6) #7
  %7 = call ptr @wtap_open_offline(ptr noundef %1, i32 noundef %2, ptr noundef %4, ptr noundef nonnull %6, i1 noundef zeroext true)
  %8 = icmp eq ptr %7, null
  br i1 %8, label %36, label %9

9:                                                ; preds = %5
  %10 = zext i1 %3 to i8
  %11 = getelementptr inbounds nuw i8, ptr %0, i64 224
  store ptr %7, ptr %11, align 8
  %12 = getelementptr inbounds nuw i8, ptr %0, i64 40
  store i64 0, ptr %12, align 8
  %13 = call noalias ptr @g_strdup(ptr noundef %1)
  %14 = getelementptr inbounds nuw i8, ptr %0, i64 16
  store ptr %13, ptr %14, align 8
  %15 = getelementptr inbounds nuw i8, ptr %0, i64 32
  store i8 %10, ptr %15, align 8
  %16 = getelementptr inbounds nuw i8, ptr %0, i64 33
  store i8 0, ptr %16, align 1
  %17 = load ptr, ptr %11, align 8
  %18 = call i32 @wtap_file_type_subtype(ptr noundef %17)
  %19 = trunc i32 %18 to i16
  %20 = getelementptr inbounds nuw i8, ptr %0, i64 48
  store i16 %19, ptr %20, align 8
  %21 = getelementptr inbounds nuw i8, ptr %0, i64 52
  store i32 %2, ptr %21, align 4
  %22 = getelementptr inbounds nuw i8, ptr %0, i64 72
  store i32 0, ptr %22, align 8
  %23 = getelementptr inbounds nuw i8, ptr %0, i64 104
  store i8 0, ptr %23, align 8
  %24 = getelementptr inbounds nuw i8, ptr %0, i64 108
  store i32 0, ptr %24, align 4
  %25 = load ptr, ptr %11, align 8
  %26 = call i32 @wtap_snapshot_length(ptr noundef %25)
  %27 = getelementptr inbounds nuw i8, ptr %0, i64 128
  store i32 %26, ptr %27, align 8
  %28 = getelementptr inbounds nuw i8, ptr %0, i64 112
  call void @nstime_set_zero(ptr noundef nonnull %28)
  %29 = getelementptr inbounds nuw i8, ptr %0, i64 232
  call void @llvm.memset.p0.i64(ptr noundef nonnull align 8 dereferenceable(24) %29, i8 0, i64 24, i1 false)
  %30 = load ptr, ptr %0, align 8
  call void @epan_free(ptr noundef %30)
  %31 = call ptr @epan_new(ptr noundef nonnull %11, ptr noundef nonnull @sharkd_epan_new.funcs)
  store ptr %31, ptr %0, align 8
  %32 = getelementptr inbounds nuw i8, ptr %0, i64 8
  store i32 2, ptr %32, align 8
  %33 = load ptr, ptr %11, align 8
  call void @wtap_set_cb_new_ipv4(ptr noundef %33, ptr noundef nonnull @add_ipv4_name)
  %34 = load ptr, ptr %11, align 8
  call void @wtap_set_cb_new_ipv6(ptr noundef %34, ptr noundef nonnull @add_ipv6_name)
  %35 = load ptr, ptr %11, align 8
  call void @wtap_set_cb_new_secrets(ptr noundef %35, ptr noundef nonnull @secrets_wtap_callback)
  br label %39

36:                                               ; preds = %5
  %37 = load i32, ptr %4, align 4
  %38 = load ptr, ptr %6, align 8
  call void @cfile_open_failure_message(ptr noundef %1, i32 noundef %37, ptr noundef %38)
  br label %39

39:                                               ; preds = %36, %9
  %.0 = phi i32 [ 1, %36 ], [ 0, %9 ]
  call void @llvm.lifetime.end.p0(i64 8, ptr nonnull %6) #7
  ret i32 %.0
}